target datalayout = "e-m:e-p270:32:32-p271:32:32-p272:64:64-i64:64-i128:128-f80:128-n8:16:32:64-S128"
target triple = "x86_64-pc-linux-gnu"

%struct.Qureg = type { i32, i32, i32, i64, i64, i32, i32, %struct.ComplexArray, %struct.ComplexArray, %struct.ComplexArray, ptr, ptr, ptr, ptr, ptr, ptr }
%struct.ComplexArray = type { ptr, ptr }

@__func__.multiControlledMultiRotatePauli = private unnamed_addr constant [32 x i8] c"multiControlledMultiRotatePauli\00", align 1
@.str.11 = private unnamed_addr constant [116 x i8] c"Here a %d-control %d-target multiControlledMultiRotatePauli of angle %.14g was performed (QASM not yet implemented)\00", align 1

; Function Attrs: nounwind uwtable
define void @multiControlledMultiRotatePauli(ptr noundef byval(%struct.Qureg) align 8 %0, ptr noundef %1, i32 noundef %2, ptr noundef %3, ptr noundef %4, i32 noundef %5, double noundef %6) #0 {
  %8 = alloca ptr, align 8
  %9 = alloca i32, align 4
  %10 = alloca ptr, align 8
  %11 = alloca ptr, align 8
  %12 = alloca i32, align 4
  %13 = alloca double, align 8
  %14 = alloca i32, align 4
  %15 = alloca i64, align 8
  %16 = alloca i32, align 4
  store ptr %1, ptr %8, align 8, !tbaa !27
  store i32 %2, ptr %9, align 4, !tbaa !4
  store ptr %3, ptr %10, align 8, !tbaa !27
  store ptr %4, ptr %11, align 8, !tbaa !29
  store i32 %5, ptr %12, align 4, !tbaa !4
  store double %6, ptr %13, align 8, !tbaa !25
  %17 = load ptr, ptr %8, align 8, !tbaa !27
  %18 = load i32, ptr %9, align 4, !tbaa !4
  %19 = load ptr, ptr %10, align 8, !tbaa !27
  %20 = load i32, ptr %12, align 4, !tbaa !4
  call void @validateMultiControlsMultiTargets(ptr noundef byval(%struct.Qureg) align 8 %0, ptr noundef %17, i32 noundef %18, ptr noundef %19, i32 noundef %20, ptr noundef @__func__.multiControlledMultiRotatePauli)
  %21 = load ptr, ptr %11, align 8, !tbaa !29
  %22 = load i32, ptr %12, align 4, !tbaa !4
  call void @validatePauliCodes(ptr noundef %21, i32 noundef %22, ptr noundef @__func__.multiControlledMultiRotatePauli)
  call void @llvm.lifetime.start.p0(i64 4, ptr %14) #7
  store i32 0, ptr %14, align 4, !tbaa !4
  call void @llvm.lifetime.start.p0(i64 8, ptr %15) #7
  %23 = load ptr, ptr %8, align 8, !tbaa !27
  %24 = load i32, ptr %9, align 4, !tbaa !4
  %25 = call i64 @getQubitBitMask(ptr noundef %23, i32 noundef %24)
  store i64 %25, ptr %15, align 8, !tbaa !22
  %26 = load i64, ptr %15, align 8, !tbaa !22
  %27 = load ptr, ptr %10, align 8, !tbaa !27
  %28 = load ptr, ptr %11, align 8, !tbaa !29
  %29 = load i32, ptr %12, align 4, !tbaa !4
  %30 = load double, ptr %13, align 8, !tbaa !25
  %31 = load i32, ptr %14, align 4, !tbaa !4
  call void @statevec_multiControlledMultiRotatePauli(ptr noundef byval(%struct.Qureg) align 8 %0, i64 noundef %26, ptr noundef %27, ptr noundef %28, i32 noundef %29, double noundef %30, i32 noundef %31)
  %32 = getelementptr inbounds nuw %struct.Qureg, ptr %0, i32 0, i32 0
  %33 = load i32, ptr %32, align 8, !tbaa !13
  %34 = icmp ne i32 %33, 0
  br i1 %34, label %35, label %54

35:                                               ; preds = %7
  store i32 1, ptr %14, align 4, !tbaa !4
  call void @llvm.lifetime.start.p0(i64 4, ptr %16) #7
  %36 = getelementptr inbounds nuw %struct.Qureg, ptr %0, i32 0, i32 1
  %37 = load i32, ptr %36, align 4, !tbaa !18
  store i32 %37, ptr %16, align 4, !tbaa !4
  %38 = load ptr, ptr %10, align 8, !tbaa !27
  %39 = load i32, ptr %12, align 4, !tbaa !4
  %40 = load i32, ptr %16, align 4, !tbaa !4
  call void @shiftIndices(ptr noundef %38, i32 noundef %39, i32 noundef %40)
  %41 = load i64, ptr %15, align 8, !tbaa !22
  %42 = load i32, ptr %16, align 4, !tbaa !4
  %43 = zext i32 %42 to i64
  %44 = shl i64 %41, %43
  %45 = load ptr, ptr %10, align 8, !tbaa !27
  %46 = load ptr, ptr %11, align 8, !tbaa !29
  %47 = load i32, ptr %12, align 4, !tbaa !4
  %48 = load double, ptr %13, align 8, !tbaa !25
  %49 = load i32, ptr %14, align 4, !tbaa !4
  call void @statevec_multiControlledMultiRotatePauli(ptr noundef byval(%struct.Qureg) align 8 %0, i64 noundef %44, ptr noundef %45, ptr noundef %46, i32 noundef %47, double noundef %48, i32 noundef %49)
  %50 = load ptr, ptr %10, align 8, !tbaa !27
  %51 = load i32, ptr %12, align 4, !tbaa !4
  %52 = load i32, ptr %16, align 4, !tbaa !4
  %53 = sub nsw i32 0, %52
  call void @shiftIndices(ptr noundef %50, i32 noundef %51, i32 noundef %53)
  call void @llvm.lifetime.end.p0(i64 4, ptr %16) #7
  br label %54

54:                                               ; preds = %35, %7
  %55 = load i32, ptr %9, align 4, !tbaa !4
  %56 = load i32, ptr %12, align 4, !tbaa !4
  %57 = load double, ptr %13, align 8, !tbaa !25
  call void (ptr, ptr, ...) @qasm_recordComment(ptr noundef byval(%struct.Qureg) align 8 %0, ptr noundef @.str.11, i32 noundef %55, i32 noundef %56, double noundef %57)
  call void @llvm.lifetime.end.p0(i64 8, ptr %15) #7
  call void @llvm.lifetime.end.p0(i64 4, ptr %14) #7
  ret void
}