; Function Attrs: nounwind uwtable
define void @multiControlledMultiRotatePauli(ptr noundef readonly byval(%struct.Qureg) align 8 captures(none) %0, ptr noundef %1, i32 noundef %2, ptr noundef %3, ptr noundef %4, i32 noundef %5, double noundef %6) local_unnamed_addr #0 {
  tail call void @validateMultiControlsMultiTargets(ptr noundef nonnull byval(%struct.Qureg) align 8 %0, ptr noundef %1, i32 noundef %2, ptr noundef %3, i32 noundef %5, ptr noundef nonnull @__func__.multiControlledMultiRotatePauli) #17
  tail call void @validatePauliCodes(ptr noundef %4, i32 noundef %5, ptr noundef nonnull @__func__.multiControlledMultiRotatePauli) #17
  %8 = tail call i64 @getQubitBitMask(ptr noundef %1, i32 noundef %2) #17
  tail call void @statevec_multiControlledMultiRotatePauli(ptr noundef nonnull byval(%struct.Qureg) align 8 %0, i64 noundef %8, ptr noundef %3, ptr noundef %4, i32 noundef %5, double noundef %6, i32 noundef 0) #17
  %9 = load i32, ptr %0, align 8, !tbaa !12
  %.not = icmp eq i32 %9, 0
  br i1 %.not, label %16, label %10

10:                                               ; preds = %7
  %11 = getelementptr inbounds nuw i8, ptr %0, i64 4
  %12 = load i32, ptr %11, align 4, !tbaa !17
  tail call void @shiftIndices(ptr noundef %3, i32 noundef %5, i32 noundef %12) #17
  %13 = zext nneg i32 %12 to i64
  %14 = shl i64 %8, %13
  tail call void @statevec_multiControlledMultiRotatePauli(ptr noundef nonnull byval(%struct.Qureg) align 8 %0, i64 noundef %14, ptr noundef %3, ptr noundef %4, i32 noundef %5, double noundef %6, i32 noundef 1) #17
  %15 = sub nsw i32 0, %12
  tail call void @shiftIndices(ptr noundef %3, i32 noundef %5, i32 noundef %15) #17
  br label %16

16:                                               ; preds = %10, %7
  tail call void (ptr, ptr, ...) @qasm_recordComment(ptr noundef nonnull byval(%struct.Qureg) align 8 %0, ptr noundef nonnull @.str.11, i32 noundef %2, i32 noundef %5, double noundef %6) #17
  ret void
}